---
triple:          'arm64-apple-darwin'
binary-path:     '/Users/moeezali/Documents/VS/SEMESTER#5/SDA/design-patterns/composite/1'
relocations:
  - { offsetInCU: 0x2F92, offset: 0x2F92, size: 0x8, addend: 0x0, symName: __ZNSt3__124__put_character_sequenceB7v160006IcNS_11char_traitsIcEEEERNS_13basic_ostreamIT_T0_EES7_PKS4_m, symObjAddr: 0x828, symBinAddr: 0x100000E90, symSize: 0x1EC }
  - { offsetInCU: 0x63CE, offset: 0x63CE, size: 0x8, addend: 0x0, symName: __ZNSt3__1lsB7v160006INS_11char_traitsIcEEEERNS_13basic_ostreamIcT_EES6_PKc, symObjAddr: 0x538, symBinAddr: 0x100000BA0, symSize: 0x48 }
  - { offsetInCU: 0x6414, offset: 0x6414, size: 0x8, addend: 0x0, symName: __ZNSt3__14endlB7v160006IcNS_11char_traitsIcEEEERNS_13basic_ostreamIT_T0_EES7_, symObjAddr: 0x684, symBinAddr: 0x100000CEC, symSize: 0x58 }
  - { offsetInCU: 0x6454, offset: 0x6454, size: 0x8, addend: 0x0, symName: __ZNSt3__1lsB7v160006IcNS_11char_traitsIcEENS_9allocatorIcEEEERNS_13basic_ostreamIT_T0_EES9_RKNS_12basic_stringIS6_S7_T1_EE, symObjAddr: 0x7DC, symBinAddr: 0x100000E44, symSize: 0x4C }
  - { offsetInCU: 0x64AC, offset: 0x64AC, size: 0x8, addend: 0x0, symName: __ZNSt3__116__pad_and_outputB7v160006IcNS_11char_traitsIcEEEENS_19ostreambuf_iteratorIT_T0_EES6_PKS4_S8_S8_RNS_8ios_baseES4_, symObjAddr: 0xAAC, symBinAddr: 0x100001114, symSize: 0x240 }
  - { offsetInCU: 0x657B, offset: 0x657B, size: 0x8, addend: 0x0, symName: __ZNSt3__119__debug_db_insert_cB7v160006INS_12basic_stringIcNS_11char_traitsIcEENS_9allocatorIcEEEEEEvPT_, symObjAddr: 0xF6C, symBinAddr: 0x1000015D4, symSize: 0x10 }
  - { offsetInCU: 0x65AC, offset: 0x65AC, size: 0x8, addend: 0x0, symName: __ZNSt3__112__to_addressB7v160006IcEEPT_S2_, symObjAddr: 0x1038, symBinAddr: 0x1000016A0, symSize: 0x14 }
  - { offsetInCU: 0x6614, offset: 0x6614, size: 0x8, addend: 0x0, symName: __ZNSt3__19use_facetB7v160006INS_5ctypeIcEEEERKT_RKNS_6localeE, symObjAddr: 0x12F0, symBinAddr: 0x100001958, symSize: 0x2C }
  - { offsetInCU: 0x6AE3, offset: 0x6AE3, size: 0x8, addend: 0x0, symName: __ZNSt3__112__to_addressB7v160006IKcEEPT_S3_, symObjAddr: 0x1388, symBinAddr: 0x1000019F0, symSize: 0x14 }
  - { offsetInCU: 0x6B4B, offset: 0x6B4B, size: 0x8, addend: 0x0, symName: __ZNSt3__119__debug_db_insert_cB7v160006INS_6vectorIP19FileSystemComponentNS_9allocatorIS3_EEEEEEvPT_, symObjAddr: 0x168C, symBinAddr: 0x100001CF4, symSize: 0x10 }
  - { offsetInCU: 0x6B7C, offset: 0x6B7C, size: 0x8, addend: 0x0, symName: __ZNSt3__112__to_addressB7v160006IP19FileSystemComponentEEPT_S4_, symObjAddr: 0x1A7C, symBinAddr: 0x1000020E4, symSize: 0x14 }
  - { offsetInCU: 0x6BB1, offset: 0x6BB1, size: 0x8, addend: 0x0, symName: __ZNSt3__13maxB7v160006ImEERKT_S3_S3_, symObjAddr: 0x1E78, symBinAddr: 0x1000024E0, symSize: 0x2C }
  - { offsetInCU: 0x6BF4, offset: 0x6BF4, size: 0x8, addend: 0x0, symName: __ZNSt3__13minB7v160006ImEERKT_S3_S3_, symObjAddr: 0x1EA4, symBinAddr: 0x10000250C, symSize: 0x2C }
  - { offsetInCU: 0x6E21, offset: 0x6E21, size: 0x8, addend: 0x0, symName: __ZNSt3__13minB7v160006ImNS_6__lessImmEEEERKT_S5_S5_T0_, symObjAddr: 0x1F30, symBinAddr: 0x100002598, symSize: 0x54 }
  - { offsetInCU: 0x6EB6, offset: 0x6EB6, size: 0x8, addend: 0x0, symName: __ZNSt3__120__throw_length_errorB7v160006EPKc, symObjAddr: 0x200C, symBinAddr: 0x100002674, symSize: 0x64 }
  - { offsetInCU: 0x6EDE, offset: 0x6EDE, size: 0x8, addend: 0x0, symName: __ZNSt3__13maxB7v160006ImNS_6__lessImmEEEERKT_S5_S5_T0_, symObjAddr: 0x2150, symBinAddr: 0x1000027B8, symSize: 0x54 }
  - { offsetInCU: 0x6F38, offset: 0x6F38, size: 0x8, addend: 0x0, symName: __ZNSt3__119__allocate_at_leastB7v160006INS_9allocatorIP19FileSystemComponentEEEENS_19__allocation_resultINS_16allocator_traitsIT_E7pointerEEERS7_m, symObjAddr: 0x22B4, symBinAddr: 0x10000291C, symSize: 0x40 }
  - { offsetInCU: 0x6F7B, offset: 0x6F7B, size: 0x8, addend: 0x0, symName: __ZNSt3__117__libcpp_allocateB7v160006Emm, symObjAddr: 0x2438, symBinAddr: 0x100002AA0, symSize: 0x60 }
  - { offsetInCU: 0x6FD5, offset: 0x6FD5, size: 0x8, addend: 0x0, symName: __ZNSt3__124__is_overaligned_for_newB7v160006Em, symObjAddr: 0x2498, symBinAddr: 0x100002B00, symSize: 0x20 }
  - { offsetInCU: 0x7003, offset: 0x7003, size: 0x8, addend: 0x0, symName: __ZNSt3__121__libcpp_operator_newB7v160006IJmSt11align_val_tEEEPvDpT_, symObjAddr: 0x24B8, symBinAddr: 0x100002B20, symSize: 0x2C }
  - { offsetInCU: 0x7050, offset: 0x7050, size: 0x8, addend: 0x0, symName: __ZNSt3__121__libcpp_operator_newB7v160006IJmEEEPvDpT_, symObjAddr: 0x24E4, symBinAddr: 0x100002B4C, symSize: 0x24 }
  - { offsetInCU: 0x7089, offset: 0x7089, size: 0x8, addend: 0x0, symName: __ZNSt3__142__uninitialized_allocator_move_if_noexceptB7v160006INS_9allocatorIP19FileSystemComponentEENS_16reverse_iteratorIPS3_EES7_S3_vEET1_RT_T0_SB_S8_, symObjAddr: 0x2624, symBinAddr: 0x100002C8C, symSize: 0x78 }
  - { offsetInCU: 0x7106, offset: 0x7106, size: 0x8, addend: 0x0, symName: __ZNSt3__14swapB7v160006IPP19FileSystemComponentEENS_9enable_ifIXaasr21is_move_constructibleIT_EE5valuesr18is_move_assignableIS5_EE5valueEvE4typeERS5_S8_, symObjAddr: 0x26E8, symBinAddr: 0x100002D50, symSize: 0x3C }
  - { offsetInCU: 0x7157, offset: 0x7157, size: 0x8, addend: 0x0, symName: __ZNSt3__125__debug_db_invalidate_allB7v160006INS_6vectorIP19FileSystemComponentNS_9allocatorIS3_EEEEEEvPT_, symObjAddr: 0x27D0, symBinAddr: 0x100002E38, symSize: 0x10 }
  - { offsetInCU: 0x7188, offset: 0x7188, size: 0x8, addend: 0x0, symName: __ZNSt3__14moveB7v160006INS_16reverse_iteratorIPP19FileSystemComponentEES5_EET0_T_S7_S6_, symObjAddr: 0x2828, symBinAddr: 0x100002E90, symSize: 0x78 }
  - { offsetInCU: 0x71E2, offset: 0x71E2, size: 0x8, addend: 0x0, symName: __ZNSt3__16__moveB7v160006INS_17_ClassicAlgPolicyENS_16reverse_iteratorIPP19FileSystemComponentEES6_S6_EENS_4pairIT0_T2_EES8_T1_S9_, symObjAddr: 0x28A0, symBinAddr: 0x100002F08, symSize: 0x64 }
  - { offsetInCU: 0x724E, offset: 0x724E, size: 0x8, addend: 0x0, symName: __ZNSt3__123__dispatch_copy_or_moveB7v160006INS_17_ClassicAlgPolicyENS_11__move_loopIS1_EENS_14__move_trivialENS_16reverse_iteratorIPP19FileSystemComponentEES9_S9_EENS_4pairIT2_T4_EESB_T3_SC_, symObjAddr: 0x2904, symBinAddr: 0x100002F6C, symSize: 0x64 }
  - { offsetInCU: 0x72CC, offset: 0x72CC, size: 0x8, addend: 0x0, symName: __ZNSt3__121__unwrap_and_dispatchB7v160006INS_10__overloadINS_11__move_loopINS_17_ClassicAlgPolicyEEENS_14__move_trivialEEENS_16reverse_iteratorIPP19FileSystemComponentEESB_SB_Li0EEENS_4pairIT0_T2_EESD_T1_SE_, symObjAddr: 0x2968, symBinAddr: 0x100002FD0, symSize: 0x12C }
  - { offsetInCU: 0x735C, offset: 0x735C, size: 0x8, addend: 0x0, symName: __ZNSt3__114__unwrap_rangeB7v160006INS_16reverse_iteratorIPP19FileSystemComponentEES5_EENS_4pairIT0_S7_EET_S9_, symObjAddr: 0x2A94, symBinAddr: 0x1000030FC, symSize: 0x84 }
  - { offsetInCU: 0x74D7, offset: 0x74D7, size: 0x8, addend: 0x0, symName: __ZNSt3__113__unwrap_iterB7v160006INS_16reverse_iteratorIPP19FileSystemComponentEENS_18__unwrap_iter_implIS5_Lb0EEELi0EEEDTclsrT0_8__unwrapclsr3stdE7declvalIT_EEEES9_, symObjAddr: 0x2BB8, symBinAddr: 0x100003220, symSize: 0x44 }
  - { offsetInCU: 0x751B, offset: 0x751B, size: 0x8, addend: 0x0, symName: __ZNSt3__19make_pairB7v160006INS_16reverse_iteratorIPP19FileSystemComponentEES5_EENS_4pairINS_18__unwrap_ref_decayIT_E4typeENS7_IT0_E4typeEEEOS8_OSB_, symObjAddr: 0x2BFC, symBinAddr: 0x100003264, symSize: 0x38 }
  - { offsetInCU: 0x756A, offset: 0x756A, size: 0x8, addend: 0x0, symName: __ZNSt3__114__rewrap_rangeB7v160006INS_16reverse_iteratorIPP19FileSystemComponentEES5_EET_S6_T0_, symObjAddr: 0x2C34, symBinAddr: 0x10000329C, symSize: 0x5C }
  - { offsetInCU: 0x75B6, offset: 0x75B6, size: 0x8, addend: 0x0, symName: __ZNSt3__113__rewrap_iterB7v160006INS_16reverse_iteratorIPP19FileSystemComponentEES5_NS_18__unwrap_iter_implIS5_Lb0EEEEET_S8_T0_, symObjAddr: 0x2C90, symBinAddr: 0x1000032F8, symSize: 0x74 }
  - { offsetInCU: 0x760B, offset: 0x760B, size: 0x8, addend: 0x0, symName: __ZNSt3__1neB7v160006IPP19FileSystemComponentS3_EEbRKNS_16reverse_iteratorIT_EERKNS4_IT0_EE, symObjAddr: 0x2D04, symBinAddr: 0x10000336C, symSize: 0x48 }
  - { offsetInCU: 0x7709, offset: 0x7709, size: 0x8, addend: 0x0, symName: __ZNSt3__119__libcpp_deallocateB7v160006EPvmm, symObjAddr: 0x30FC, symBinAddr: 0x100003764, symSize: 0x60 }
  - { offsetInCU: 0x776E, offset: 0x776E, size: 0x8, addend: 0x0, symName: __ZNSt3__127__do_deallocate_handle_sizeB7v160006IJSt11align_val_tEEEvPvmDpT_, symObjAddr: 0x315C, symBinAddr: 0x1000037C4, symSize: 0x30 }
  - { offsetInCU: 0x77C1, offset: 0x77C1, size: 0x8, addend: 0x0, symName: __ZNSt3__127__do_deallocate_handle_sizeB7v160006IJEEEvPvmDpT_, symObjAddr: 0x318C, symBinAddr: 0x1000037F4, symSize: 0x28 }
  - { offsetInCU: 0x77FF, offset: 0x77FF, size: 0x8, addend: 0x0, symName: __ZNSt3__124__libcpp_operator_deleteB7v160006IJPvSt11align_val_tEEEvDpT_, symObjAddr: 0x31B4, symBinAddr: 0x10000381C, symSize: 0x2C }
  - { offsetInCU: 0x7848, offset: 0x7848, size: 0x8, addend: 0x0, symName: __ZNSt3__124__libcpp_operator_deleteB7v160006IJPvEEEvDpT_, symObjAddr: 0x31E0, symBinAddr: 0x100003848, symSize: 0x24 }
  - { offsetInCU: 0x787D, offset: 0x787D, size: 0x8, addend: 0x0, symName: __ZNSt3__118__constexpr_strlenB7v160006EPKc, symObjAddr: 0x3284, symBinAddr: 0x1000038EC, symSize: 0x24 }
  - { offsetInCU: 0x7B4A, offset: 0x7B4A, size: 0x8, addend: 0x0, symName: __ZSt28__throw_bad_array_new_lengthB7v160006v, symObjAddr: 0x2404, symBinAddr: 0x100002A6C, symSize: 0x34 }
  - { offsetInCU: 0x8136, offset: 0x8136, size: 0x8, addend: 0x0, symName: __ZNSt3__16vectorIP19FileSystemComponentNS_9allocatorIS2_EEE26__swap_out_circular_bufferERNS_14__split_bufferIS2_RS4_EE, symObjAddr: 0x1C78, symBinAddr: 0x1000022E0, symSize: 0x118 }
  - { offsetInCU: 0xA3A7, offset: 0xA3A7, size: 0x8, addend: 0x0, symName: _main, symObjAddr: 0x0, symBinAddr: 0x100000668, symSize: 0x538 }
  - { offsetInCU: 0xA420, offset: 0xA420, size: 0x8, addend: 0x0, symName: __ZNSt3__112basic_stringIcNS_11char_traitsIcEENS_9allocatorIcEEEC1B7v160006IDnEEPKc, symObjAddr: 0x580, symBinAddr: 0x100000BE8, symSize: 0x34 }
  - { offsetInCU: 0xA4C1, offset: 0xA4C1, size: 0x8, addend: 0x0, symName: __ZN4FileC1ENSt3__112basic_stringIcNS0_11char_traitsIcEENS0_9allocatorIcEEEEi, symObjAddr: 0x5B4, symBinAddr: 0x100000C1C, symSize: 0x3C }
  - { offsetInCU: 0xA57D, offset: 0xA57D, size: 0x8, addend: 0x0, symName: __ZN6FolderC1ENSt3__112basic_stringIcNS0_11char_traitsIcEENS0_9allocatorIcEEEE, symObjAddr: 0x5F0, symBinAddr: 0x100000C58, symSize: 0x34 }
  - { offsetInCU: 0xA5B5, offset: 0xA5B5, size: 0x8, addend: 0x0, symName: __ZN6Folder12addComponentEP19FileSystemComponent, symObjAddr: 0x624, symBinAddr: 0x100000C8C, symSize: 0x34 }
  - { offsetInCU: 0xA5E8, offset: 0xA5E8, size: 0x8, addend: 0x0, symName: __ZNSt3__113basic_ostreamIcNS_11char_traitsIcEEElsB7v160006EPFRS3_S4_E, symObjAddr: 0x658, symBinAddr: 0x100000CC0, symSize: 0x2C }
  - { offsetInCU: 0xA61B, offset: 0xA61B, size: 0x8, addend: 0x0, symName: __ZN4FileC2ENSt3__112basic_stringIcNS0_11char_traitsIcEENS0_9allocatorIcEEEEi, symObjAddr: 0x6DC, symBinAddr: 0x100000D44, symSize: 0x68 }
  - { offsetInCU: 0xA661, offset: 0xA661, size: 0x8, addend: 0x0, symName: __ZN19FileSystemComponentC2Ev, symObjAddr: 0x744, symBinAddr: 0x100000DAC, symSize: 0x24 }
  - { offsetInCU: 0xA68C, offset: 0xA68C, size: 0x8, addend: 0x0, symName: __ZN4File7displayEv, symObjAddr: 0x768, symBinAddr: 0x100000DD0, symSize: 0x74 }
  - { offsetInCU: 0xA6B1, offset: 0xA6B1, size: 0x8, addend: 0x0, symName: __ZNKSt3__112basic_stringIcNS_11char_traitsIcEENS_9allocatorIcEEE4dataB7v160006Ev, symObjAddr: 0xA14, symBinAddr: 0x10000107C, symSize: 0x28 }
  - { offsetInCU: 0xA6D6, offset: 0xA6D6, size: 0x8, addend: 0x0, symName: __ZNKSt3__112basic_stringIcNS_11char_traitsIcEENS_9allocatorIcEEE4sizeB7v160006Ev, symObjAddr: 0xA3C, symBinAddr: 0x1000010A4, symSize: 0x54 }
  - { offsetInCU: 0xA719, offset: 0xA719, size: 0x8, addend: 0x0, symName: __ZNKSt3__113basic_ostreamIcNS_11char_traitsIcEEE6sentrycvbB7v160006Ev, symObjAddr: 0xA90, symBinAddr: 0x1000010F8, symSize: 0x1C }
  - { offsetInCU: 0xA73E, offset: 0xA73E, size: 0x8, addend: 0x0, symName: __ZNSt3__119ostreambuf_iteratorIcNS_11char_traitsIcEEEC1B7v160006ERNS_13basic_ostreamIcS2_EE, symObjAddr: 0xCEC, symBinAddr: 0x100001354, symSize: 0x34 }
  - { offsetInCU: 0xA775, offset: 0xA775, size: 0x8, addend: 0x0, symName: __ZNKSt3__18ios_base5flagsB7v160006Ev, symObjAddr: 0xD20, symBinAddr: 0x100001388, symSize: 0x18 }
  - { offsetInCU: 0xA79C, offset: 0xA79C, size: 0x8, addend: 0x0, symName: __ZNKSt3__19basic_iosIcNS_11char_traitsIcEEE4fillB7v160006Ev, symObjAddr: 0xD38, symBinAddr: 0x1000013A0, symSize: 0x64 }
  - { offsetInCU: 0xA7C2, offset: 0xA7C2, size: 0x8, addend: 0x0, symName: __ZNKSt3__119ostreambuf_iteratorIcNS_11char_traitsIcEEE6failedB7v160006Ev, symObjAddr: 0xD9C, symBinAddr: 0x100001404, symSize: 0x24 }
  - { offsetInCU: 0xA7E7, offset: 0xA7E7, size: 0x8, addend: 0x0, symName: __ZNSt3__19basic_iosIcNS_11char_traitsIcEEE8setstateB7v160006Ej, symObjAddr: 0xDC0, symBinAddr: 0x100001428, symSize: 0x2C }
  - { offsetInCU: 0xA81B, offset: 0xA81B, size: 0x8, addend: 0x0, symName: __ZNKSt3__18ios_base5widthB7v160006Ev, symObjAddr: 0xDF8, symBinAddr: 0x100001460, symSize: 0x18 }
  - { offsetInCU: 0xA842, offset: 0xA842, size: 0x8, addend: 0x0, symName: __ZNSt3__115basic_streambufIcNS_11char_traitsIcEEE5sputnB7v160006EPKcl, symObjAddr: 0xE10, symBinAddr: 0x100001478, symSize: 0x3C }
  - { offsetInCU: 0xA883, offset: 0xA883, size: 0x8, addend: 0x0, symName: __ZNSt3__112basic_stringIcNS_11char_traitsIcEENS_9allocatorIcEEEC1B7v160006Emc, symObjAddr: 0xE4C, symBinAddr: 0x1000014B4, symSize: 0x3C }
  - { offsetInCU: 0xA8CA, offset: 0xA8CA, size: 0x8, addend: 0x0, symName: __ZNSt3__112basic_stringIcNS_11char_traitsIcEENS_9allocatorIcEEE4dataB7v160006Ev, symObjAddr: 0xE88, symBinAddr: 0x1000014F0, symSize: 0x28 }
  - { offsetInCU: 0xA8EF, offset: 0xA8EF, size: 0x8, addend: 0x0, symName: __ZNSt3__18ios_base5widthB7v160006El, symObjAddr: 0xEB0, symBinAddr: 0x100001518, symSize: 0x2C }
  - { offsetInCU: 0xA934, offset: 0xA934, size: 0x8, addend: 0x0, symName: __ZNSt3__112basic_stringIcNS_11char_traitsIcEENS_9allocatorIcEEEC2B7v160006Emc, symObjAddr: 0xEDC, symBinAddr: 0x100001544, symSize: 0x54 }
  - { offsetInCU: 0xA980, offset: 0xA980, size: 0x8, addend: 0x0, symName: __ZNSt3__117__compressed_pairINS_12basic_stringIcNS_11char_traitsIcEENS_9allocatorIcEEE5__repES5_EC1B7v160006INS_18__default_init_tagESA_EEOT_OT0_, symObjAddr: 0xF30, symBinAddr: 0x100001598, symSize: 0x3C }
  - { offsetInCU: 0xA9D7, offset: 0xA9D7, size: 0x8, addend: 0x0, symName: __ZNSt3__117__compressed_pairINS_12basic_stringIcNS_11char_traitsIcEENS_9allocatorIcEEE5__repES5_EC2B7v160006INS_18__default_init_tagESA_EEOT_OT0_, symObjAddr: 0xF7C, symBinAddr: 0x1000015E4, symSize: 0x3C }
  - { offsetInCU: 0xAA2E, offset: 0xAA2E, size: 0x8, addend: 0x0, symName: __ZNSt3__122__compressed_pair_elemINS_12basic_stringIcNS_11char_traitsIcEENS_9allocatorIcEEE5__repELi0ELb0EEC2B7v160006ENS_18__default_init_tagE, symObjAddr: 0xFB8, symBinAddr: 0x100001620, symSize: 0x14 }
  - { offsetInCU: 0xAA62, offset: 0xAA62, size: 0x8, addend: 0x0, symName: __ZNSt3__122__compressed_pair_elemINS_9allocatorIcEELi1ELb1EEC2B7v160006ENS_18__default_init_tagE, symObjAddr: 0xFCC, symBinAddr: 0x100001634, symSize: 0x2C }
  - { offsetInCU: 0xAA96, offset: 0xAA96, size: 0x8, addend: 0x0, symName: __ZNSt3__19allocatorIcEC2B7v160006Ev, symObjAddr: 0xFF8, symBinAddr: 0x100001660, symSize: 0x2C }
  - { offsetInCU: 0xAABF, offset: 0xAABF, size: 0x8, addend: 0x0, symName: __ZNSt3__116__non_trivial_ifILb1ENS_9allocatorIcEEEC2B7v160006Ev, symObjAddr: 0x1024, symBinAddr: 0x10000168C, symSize: 0x14 }
  - { offsetInCU: 0xAAE8, offset: 0xAAE8, size: 0x8, addend: 0x0, symName: __ZNSt3__112basic_stringIcNS_11char_traitsIcEENS_9allocatorIcEEE13__get_pointerB7v160006Ev, symObjAddr: 0x104C, symBinAddr: 0x1000016B4, symSize: 0x54 }
  - { offsetInCU: 0xAB0D, offset: 0xAB0D, size: 0x8, addend: 0x0, symName: __ZNKSt3__112basic_stringIcNS_11char_traitsIcEENS_9allocatorIcEEE9__is_longB7v160006Ev, symObjAddr: 0x10A0, symBinAddr: 0x100001708, symSize: 0x38 }
  - { offsetInCU: 0xAB32, offset: 0xAB32, size: 0x8, addend: 0x0, symName: __ZNSt3__112basic_stringIcNS_11char_traitsIcEENS_9allocatorIcEEE18__get_long_pointerB7v160006Ev, symObjAddr: 0x10D8, symBinAddr: 0x100001740, symSize: 0x28 }
  - { offsetInCU: 0xAB57, offset: 0xAB57, size: 0x8, addend: 0x0, symName: __ZNSt3__112basic_stringIcNS_11char_traitsIcEENS_9allocatorIcEEE19__get_short_pointerB7v160006Ev, symObjAddr: 0x1100, symBinAddr: 0x100001768, symSize: 0x28 }
  - { offsetInCU: 0xAB7C, offset: 0xAB7C, size: 0x8, addend: 0x0, symName: __ZNKSt3__117__compressed_pairINS_12basic_stringIcNS_11char_traitsIcEENS_9allocatorIcEEE5__repES5_E5firstB7v160006Ev, symObjAddr: 0x1128, symBinAddr: 0x100001790, symSize: 0x24 }
  - { offsetInCU: 0xABA1, offset: 0xABA1, size: 0x8, addend: 0x0, symName: __ZNKSt3__122__compressed_pair_elemINS_12basic_stringIcNS_11char_traitsIcEENS_9allocatorIcEEE5__repELi0ELb0EE5__getB7v160006Ev, symObjAddr: 0x114C, symBinAddr: 0x1000017B4, symSize: 0x14 }
  - { offsetInCU: 0xABC6, offset: 0xABC6, size: 0x8, addend: 0x0, symName: __ZNSt3__117__compressed_pairINS_12basic_stringIcNS_11char_traitsIcEENS_9allocatorIcEEE5__repES5_E5firstB7v160006Ev, symObjAddr: 0x1160, symBinAddr: 0x1000017C8, symSize: 0x24 }
  - { offsetInCU: 0xABEB, offset: 0xABEB, size: 0x8, addend: 0x0, symName: __ZNSt3__122__compressed_pair_elemINS_12basic_stringIcNS_11char_traitsIcEENS_9allocatorIcEEE5__repELi0ELb0EE5__getB7v160006Ev, symObjAddr: 0x1184, symBinAddr: 0x1000017EC, symSize: 0x14 }
  - { offsetInCU: 0xAC10, offset: 0xAC10, size: 0x8, addend: 0x0, symName: __ZNSt3__114pointer_traitsIPcE10pointer_toB7v160006ERc, symObjAddr: 0x1198, symBinAddr: 0x100001800, symSize: 0x14 }
  - { offsetInCU: 0xAC33, offset: 0xAC33, size: 0x8, addend: 0x0, symName: __ZNSt3__119ostreambuf_iteratorIcNS_11char_traitsIcEEEC2B7v160006ERNS_13basic_ostreamIcS2_EE, symObjAddr: 0x11AC, symBinAddr: 0x100001814, symSize: 0x54 }
  - { offsetInCU: 0xAC6A, offset: 0xAC6A, size: 0x8, addend: 0x0, symName: __ZNKSt3__19basic_iosIcNS_11char_traitsIcEEE5rdbufB7v160006Ev, symObjAddr: 0x1200, symBinAddr: 0x100001868, symSize: 0x24 }
  - { offsetInCU: 0xAC90, offset: 0xAC90, size: 0x8, addend: 0x0, symName: __ZNKSt3__18ios_base5rdbufB7v160006Ev, symObjAddr: 0x1224, symBinAddr: 0x10000188C, symSize: 0x18 }
  - { offsetInCU: 0xACB5, offset: 0xACB5, size: 0x8, addend: 0x0, symName: __ZNSt3__111char_traitsIcE11eq_int_typeEii, symObjAddr: 0x123C, symBinAddr: 0x1000018A4, symSize: 0x28 }
  - { offsetInCU: 0xACE6, offset: 0xACE6, size: 0x8, addend: 0x0, symName: __ZNSt3__111char_traitsIcE3eofEv, symObjAddr: 0x1264, symBinAddr: 0x1000018CC, symSize: 0x8 }
  - { offsetInCU: 0xACFA, offset: 0xACFA, size: 0x8, addend: 0x0, symName: __ZNKSt3__19basic_iosIcNS_11char_traitsIcEEE5widenB7v160006Ec, symObjAddr: 0x126C, symBinAddr: 0x1000018D4, symSize: 0x84 }
  - { offsetInCU: 0xAD66, offset: 0xAD66, size: 0x8, addend: 0x0, symName: __ZNKSt3__15ctypeIcE5widenB7v160006Ec, symObjAddr: 0x131C, symBinAddr: 0x100001984, symSize: 0x38 }
  - { offsetInCU: 0xAD9A, offset: 0xAD9A, size: 0x8, addend: 0x0, symName: __ZNSt3__18ios_base8setstateB7v160006Ej, symObjAddr: 0x1354, symBinAddr: 0x1000019BC, symSize: 0x34 }
  - { offsetInCU: 0xADCF, offset: 0xADCF, size: 0x8, addend: 0x0, symName: __ZNKSt3__112basic_stringIcNS_11char_traitsIcEENS_9allocatorIcEEE13__get_pointerB7v160006Ev, symObjAddr: 0x139C, symBinAddr: 0x100001A04, symSize: 0x54 }
  - { offsetInCU: 0xADF4, offset: 0xADF4, size: 0x8, addend: 0x0, symName: __ZNKSt3__112basic_stringIcNS_11char_traitsIcEENS_9allocatorIcEEE18__get_long_pointerB7v160006Ev, symObjAddr: 0x13F0, symBinAddr: 0x100001A58, symSize: 0x28 }
  - { offsetInCU: 0xAE19, offset: 0xAE19, size: 0x8, addend: 0x0, symName: __ZNKSt3__112basic_stringIcNS_11char_traitsIcEENS_9allocatorIcEEE19__get_short_pointerB7v160006Ev, symObjAddr: 0x1418, symBinAddr: 0x100001A80, symSize: 0x28 }
  - { offsetInCU: 0xAE3E, offset: 0xAE3E, size: 0x8, addend: 0x0, symName: __ZNSt3__114pointer_traitsIPKcE10pointer_toB7v160006ERS1_, symObjAddr: 0x1440, symBinAddr: 0x100001AA8, symSize: 0x14 }
  - { offsetInCU: 0xAE61, offset: 0xAE61, size: 0x8, addend: 0x0, symName: __ZNKSt3__112basic_stringIcNS_11char_traitsIcEENS_9allocatorIcEEE15__get_long_sizeB7v160006Ev, symObjAddr: 0x1454, symBinAddr: 0x100001ABC, symSize: 0x28 }
  - { offsetInCU: 0xAE86, offset: 0xAE86, size: 0x8, addend: 0x0, symName: __ZNKSt3__112basic_stringIcNS_11char_traitsIcEENS_9allocatorIcEEE16__get_short_sizeB7v160006Ev, symObjAddr: 0x147C, symBinAddr: 0x100001AE4, symSize: 0x34 }
  - { offsetInCU: 0xAEAB, offset: 0xAEAB, size: 0x8, addend: 0x0, symName: __ZN6FolderC2ENSt3__112basic_stringIcNS0_11char_traitsIcEENS0_9allocatorIcEEEE, symObjAddr: 0x14B0, symBinAddr: 0x100001B18, symSize: 0x68 }
  - { offsetInCU: 0xAEE3, offset: 0xAEE3, size: 0x8, addend: 0x0, symName: __ZNSt3__16vectorIP19FileSystemComponentNS_9allocatorIS2_EEEC1B7v160006Ev, symObjAddr: 0x1518, symBinAddr: 0x100001B80, symSize: 0x2C }
  - { offsetInCU: 0xAF0C, offset: 0xAF0C, size: 0x8, addend: 0x0, symName: __ZN6Folder7displayEv, symObjAddr: 0x1544, symBinAddr: 0x100001BAC, symSize: 0xB4 }
  - { offsetInCU: 0xAF4D, offset: 0xAF4D, size: 0x8, addend: 0x0, symName: __ZNSt3__16vectorIP19FileSystemComponentNS_9allocatorIS2_EEEC2B7v160006Ev, symObjAddr: 0x15F8, symBinAddr: 0x100001C60, symSize: 0x58 }
  - { offsetInCU: 0xAF7B, offset: 0xAF7B, size: 0x8, addend: 0x0, symName: __ZNSt3__117__compressed_pairIPP19FileSystemComponentNS_9allocatorIS2_EEEC1B7v160006IDnNS_18__default_init_tagEEEOT_OT0_, symObjAddr: 0x1650, symBinAddr: 0x100001CB8, symSize: 0x3C }
  - { offsetInCU: 0xAFD2, offset: 0xAFD2, size: 0x8, addend: 0x0, symName: __ZNSt3__117__compressed_pairIPP19FileSystemComponentNS_9allocatorIS2_EEEC2B7v160006IDnNS_18__default_init_tagEEEOT_OT0_, symObjAddr: 0x169C, symBinAddr: 0x100001D04, symSize: 0x40 }
  - { offsetInCU: 0xB029, offset: 0xB029, size: 0x8, addend: 0x0, symName: __ZNSt3__122__compressed_pair_elemIPP19FileSystemComponentLi0ELb0EEC2B7v160006IDnvEEOT_, symObjAddr: 0x16DC, symBinAddr: 0x100001D44, symSize: 0x1C }
  - { offsetInCU: 0xB06A, offset: 0xB06A, size: 0x8, addend: 0x0, symName: __ZNSt3__122__compressed_pair_elemINS_9allocatorIP19FileSystemComponentEELi1ELb1EEC2B7v160006ENS_18__default_init_tagE, symObjAddr: 0x16F8, symBinAddr: 0x100001D60, symSize: 0x2C }
  - { offsetInCU: 0xB09E, offset: 0xB09E, size: 0x8, addend: 0x0, symName: __ZNSt3__19allocatorIP19FileSystemComponentEC2B7v160006Ev, symObjAddr: 0x1724, symBinAddr: 0x100001D8C, symSize: 0x2C }
  - { offsetInCU: 0xB0C7, offset: 0xB0C7, size: 0x8, addend: 0x0, symName: __ZNSt3__116__non_trivial_ifILb1ENS_9allocatorIP19FileSystemComponentEEEC2B7v160006Ev, symObjAddr: 0x1750, symBinAddr: 0x100001DB8, symSize: 0x14 }
  - { offsetInCU: 0xB0F0, offset: 0xB0F0, size: 0x8, addend: 0x0, symName: __ZNKSt3__16vectorIP19FileSystemComponentNS_9allocatorIS2_EEE4sizeB7v160006Ev, symObjAddr: 0x1764, symBinAddr: 0x100001DCC, symSize: 0x28 }
  - { offsetInCU: 0xB115, offset: 0xB115, size: 0x8, addend: 0x0, symName: __ZNSt3__16vectorIP19FileSystemComponentNS_9allocatorIS2_EEEixB7v160006Em, symObjAddr: 0x178C, symBinAddr: 0x100001DF4, symSize: 0x24 }
  - { offsetInCU: 0xB14B, offset: 0xB14B, size: 0x8, addend: 0x0, symName: __ZNSt3__16vectorIP19FileSystemComponentNS_9allocatorIS2_EEE9push_backB7v160006ERKS2_, symObjAddr: 0x17B0, symBinAddr: 0x100001E18, symSize: 0x6C }
  - { offsetInCU: 0xB180, offset: 0xB180, size: 0x8, addend: 0x0, symName: __ZNSt3__16vectorIP19FileSystemComponentNS_9allocatorIS2_EEE9__end_capB7v160006Ev, symObjAddr: 0x181C, symBinAddr: 0x100001E84, symSize: 0x28 }
  - { offsetInCU: 0xB1A5, offset: 0xB1A5, size: 0x8, addend: 0x0, symName: __ZNSt3__16vectorIP19FileSystemComponentNS_9allocatorIS2_EEE22__construct_one_at_endB7v160006IJRKS2_EEEvDpOT_, symObjAddr: 0x1844, symBinAddr: 0x100001EAC, symSize: 0x90 }
  - { offsetInCU: 0xB1F3, offset: 0xB1F3, size: 0x8, addend: 0x0, symName: __ZNSt3__16vectorIP19FileSystemComponentNS_9allocatorIS2_EEE21__push_back_slow_pathIRKS2_EEvOT_, symObjAddr: 0x18D4, symBinAddr: 0x100001F3C, symSize: 0xD8 }
  - { offsetInCU: 0xB24F, offset: 0xB24F, size: 0x8, addend: 0x0, symName: __ZNSt3__117__compressed_pairIPP19FileSystemComponentNS_9allocatorIS2_EEE5firstB7v160006Ev, symObjAddr: 0x19AC, symBinAddr: 0x100002014, symSize: 0x24 }
  - { offsetInCU: 0xB274, offset: 0xB274, size: 0x8, addend: 0x0, symName: __ZNSt3__122__compressed_pair_elemIPP19FileSystemComponentLi0ELb0EE5__getB7v160006Ev, symObjAddr: 0x19D0, symBinAddr: 0x100002038, symSize: 0x14 }
  - { offsetInCU: 0xB2B2, offset: 0xB2B2, size: 0x8, addend: 0x0, symName: __ZNSt3__16vectorIP19FileSystemComponentNS_9allocatorIS2_EEE21_ConstructTransactionC1B7v160006ERS5_m, symObjAddr: 0x19E4, symBinAddr: 0x10000204C, symSize: 0x3C }
  - { offsetInCU: 0xB2F9, offset: 0xB2F9, size: 0x8, addend: 0x0, symName: __ZNSt3__116allocator_traitsINS_9allocatorIP19FileSystemComponentEEE9constructB7v160006IS3_JRKS3_EvEEvRS4_PT_DpOT0_, symObjAddr: 0x1A20, symBinAddr: 0x100002088, symSize: 0x34 }
  - { offsetInCU: 0xB350, offset: 0xB350, size: 0x8, addend: 0x0, symName: __ZNSt3__16vectorIP19FileSystemComponentNS_9allocatorIS2_EEE7__allocB7v160006Ev, symObjAddr: 0x1A54, symBinAddr: 0x1000020BC, symSize: 0x28 }
  - { offsetInCU: 0xB375, offset: 0xB375, size: 0x8, addend: 0x0, symName: __ZNSt3__16vectorIP19FileSystemComponentNS_9allocatorIS2_EEE21_ConstructTransactionD1B7v160006Ev, symObjAddr: 0x1A90, symBinAddr: 0x1000020F8, symSize: 0x2C }
  - { offsetInCU: 0xB39E, offset: 0xB39E, size: 0x8, addend: 0x0, symName: __ZNSt3__16vectorIP19FileSystemComponentNS_9allocatorIS2_EEE21_ConstructTransactionC2B7v160006ERS5_m, symObjAddr: 0x1ABC, symBinAddr: 0x100002124, symSize: 0x44 }
  - { offsetInCU: 0xB3E5, offset: 0xB3E5, size: 0x8, addend: 0x0, symName: __ZNSt3__19allocatorIP19FileSystemComponentE9constructB7v160006IS2_JRKS2_EEEvPT_DpOT0_, symObjAddr: 0x1B00, symBinAddr: 0x100002168, symSize: 0x28 }
  - { offsetInCU: 0xB43A, offset: 0xB43A, size: 0x8, addend: 0x0, symName: __ZNSt3__117__compressed_pairIPP19FileSystemComponentNS_9allocatorIS2_EEE6secondB7v160006Ev, symObjAddr: 0x1B28, symBinAddr: 0x100002190, symSize: 0x24 }
  - { offsetInCU: 0xB45F, offset: 0xB45F, size: 0x8, addend: 0x0, symName: __ZNSt3__122__compressed_pair_elemINS_9allocatorIP19FileSystemComponentEELi1ELb1EE5__getB7v160006Ev, symObjAddr: 0x1B4C, symBinAddr: 0x1000021B4, symSize: 0x14 }
  - { offsetInCU: 0xB484, offset: 0xB484, size: 0x8, addend: 0x0, symName: __ZNSt3__16vectorIP19FileSystemComponentNS_9allocatorIS2_EEE21_ConstructTransactionD2B7v160006Ev, symObjAddr: 0x1B60, symBinAddr: 0x1000021C8, symSize: 0x20 }
  - { offsetInCU: 0xB4AD, offset: 0xB4AD, size: 0x8, addend: 0x0, symName: __ZNKSt3__16vectorIP19FileSystemComponentNS_9allocatorIS2_EEE11__recommendB7v160006Em, symObjAddr: 0x1B80, symBinAddr: 0x1000021E8, symSize: 0xB4 }
  - { offsetInCU: 0xB500, offset: 0xB500, size: 0x8, addend: 0x0, symName: __ZNSt3__114__split_bufferIP19FileSystemComponentRNS_9allocatorIS2_EEEC1EmmS5_, symObjAddr: 0x1C34, symBinAddr: 0x10000229C, symSize: 0x44 }
  - { offsetInCU: 0xB555, offset: 0xB555, size: 0x8, addend: 0x0, symName: __ZNSt3__114__split_bufferIP19FileSystemComponentRNS_9allocatorIS2_EEED1Ev, symObjAddr: 0x1D90, symBinAddr: 0x1000023F8, symSize: 0x2C }
  - { offsetInCU: 0xB580, offset: 0xB580, size: 0x8, addend: 0x0, symName: __ZNKSt3__16vectorIP19FileSystemComponentNS_9allocatorIS2_EEE8max_sizeEv, symObjAddr: 0x1DBC, symBinAddr: 0x100002424, symSize: 0x60 }
  - { offsetInCU: 0xB5A6, offset: 0xB5A6, size: 0x8, addend: 0x0, symName: __ZNKSt3__16vectorIP19FileSystemComponentNS_9allocatorIS2_EEE20__throw_length_errorB7v160006Ev, symObjAddr: 0x1E1C, symBinAddr: 0x100002484, symSize: 0x1C }
  - { offsetInCU: 0xB5CB, offset: 0xB5CB, size: 0x8, addend: 0x0, symName: __ZNKSt3__16vectorIP19FileSystemComponentNS_9allocatorIS2_EEE8capacityB7v160006Ev, symObjAddr: 0x1E38, symBinAddr: 0x1000024A0, symSize: 0x40 }
  - { offsetInCU: 0xB5FA, offset: 0xB5FA, size: 0x8, addend: 0x0, symName: __ZNSt3__116allocator_traitsINS_9allocatorIP19FileSystemComponentEEE8max_sizeB7v160006IS4_vEEmRKS4_, symObjAddr: 0x1ED0, symBinAddr: 0x100002538, symSize: 0x24 }
  - { offsetInCU: 0xB628, offset: 0xB628, size: 0x8, addend: 0x0, symName: __ZNKSt3__16vectorIP19FileSystemComponentNS_9allocatorIS2_EEE7__allocB7v160006Ev, symObjAddr: 0x1EF4, symBinAddr: 0x10000255C, symSize: 0x28 }
  - { offsetInCU: 0xB64D, offset: 0xB64D, size: 0x8, addend: 0x0, symName: __ZNSt3__114numeric_limitsIlE3maxB7v160006Ev, symObjAddr: 0x1F1C, symBinAddr: 0x100002584, symSize: 0x14 }
  - { offsetInCU: 0xB675, offset: 0xB675, size: 0x8, addend: 0x0, symName: __ZNKSt3__16__lessImmEclB7v160006ERKmS3_, symObjAddr: 0x1F84, symBinAddr: 0x1000025EC, symSize: 0x34 }
  - { offsetInCU: 0xB6B6, offset: 0xB6B6, size: 0x8, addend: 0x0, symName: __ZNKSt3__19allocatorIP19FileSystemComponentE8max_sizeB7v160006Ev, symObjAddr: 0x1FB8, symBinAddr: 0x100002620, symSize: 0x14 }
  - { offsetInCU: 0xB6DB, offset: 0xB6DB, size: 0x8, addend: 0x0, symName: __ZNKSt3__117__compressed_pairIPP19FileSystemComponentNS_9allocatorIS2_EEE6secondB7v160006Ev, symObjAddr: 0x1FCC, symBinAddr: 0x100002634, symSize: 0x24 }
  - { offsetInCU: 0xB700, offset: 0xB700, size: 0x8, addend: 0x0, symName: __ZNKSt3__122__compressed_pair_elemINS_9allocatorIP19FileSystemComponentEELi1ELb1EE5__getB7v160006Ev, symObjAddr: 0x1FF0, symBinAddr: 0x100002658, symSize: 0x14 }
  - { offsetInCU: 0xB725, offset: 0xB725, size: 0x8, addend: 0x0, symName: __ZNSt3__123__libcpp_numeric_limitsIlLb1EE3maxB7v160006Ev, symObjAddr: 0x2004, symBinAddr: 0x10000266C, symSize: 0x8 }
  - { offsetInCU: 0xB739, offset: 0xB739, size: 0x8, addend: 0x0, symName: __ZNSt12length_errorC1B7v160006EPKc, symObjAddr: 0x2070, symBinAddr: 0x1000026D8, symSize: 0x34 }
  - { offsetInCU: 0xB770, offset: 0xB770, size: 0x8, addend: 0x0, symName: __ZNSt12length_errorC2B7v160006EPKc, symObjAddr: 0x20A4, symBinAddr: 0x10000270C, symSize: 0x4C }
  - { offsetInCU: 0xB7A7, offset: 0xB7A7, size: 0x8, addend: 0x0, symName: __ZNKSt3__16vectorIP19FileSystemComponentNS_9allocatorIS2_EEE9__end_capB7v160006Ev, symObjAddr: 0x20F0, symBinAddr: 0x100002758, symSize: 0x28 }
  - { offsetInCU: 0xB7CC, offset: 0xB7CC, size: 0x8, addend: 0x0, symName: __ZNKSt3__117__compressed_pairIPP19FileSystemComponentNS_9allocatorIS2_EEE5firstB7v160006Ev, symObjAddr: 0x2118, symBinAddr: 0x100002780, symSize: 0x24 }
  - { offsetInCU: 0xB7F1, offset: 0xB7F1, size: 0x8, addend: 0x0, symName: __ZNKSt3__122__compressed_pair_elemIPP19FileSystemComponentLi0ELb0EE5__getB7v160006Ev, symObjAddr: 0x213C, symBinAddr: 0x1000027A4, symSize: 0x14 }
  - { offsetInCU: 0xB816, offset: 0xB816, size: 0x8, addend: 0x0, symName: __ZNSt3__114__split_bufferIP19FileSystemComponentRNS_9allocatorIS2_EEEC2EmmS5_, symObjAddr: 0x21A4, symBinAddr: 0x10000280C, symSize: 0xD4 }
  - { offsetInCU: 0xB888, offset: 0xB888, size: 0x8, addend: 0x0, symName: __ZNSt3__117__compressed_pairIPP19FileSystemComponentRNS_9allocatorIS2_EEEC1B7v160006IDnS6_EEOT_OT0_, symObjAddr: 0x2278, symBinAddr: 0x1000028E0, symSize: 0x3C }
  - { offsetInCU: 0xB8DF, offset: 0xB8DF, size: 0x8, addend: 0x0, symName: __ZNSt3__114__split_bufferIP19FileSystemComponentRNS_9allocatorIS2_EEE7__allocB7v160006Ev, symObjAddr: 0x22F4, symBinAddr: 0x10000295C, symSize: 0x28 }
  - { offsetInCU: 0xB904, offset: 0xB904, size: 0x8, addend: 0x0, symName: __ZNSt3__114__split_bufferIP19FileSystemComponentRNS_9allocatorIS2_EEE9__end_capB7v160006Ev, symObjAddr: 0x231C, symBinAddr: 0x100002984, symSize: 0x28 }
  - { offsetInCU: 0xB929, offset: 0xB929, size: 0x8, addend: 0x0, symName: __ZNSt3__117__compressed_pairIPP19FileSystemComponentRNS_9allocatorIS2_EEEC2B7v160006IDnS6_EEOT_OT0_, symObjAddr: 0x2344, symBinAddr: 0x1000029AC, symSize: 0x48 }
  - { offsetInCU: 0xB980, offset: 0xB980, size: 0x8, addend: 0x0, symName: __ZNSt3__122__compressed_pair_elemIRNS_9allocatorIP19FileSystemComponentEELi1ELb0EEC2B7v160006IS5_vEEOT_, symObjAddr: 0x238C, symBinAddr: 0x1000029F4, symSize: 0x20 }
  - { offsetInCU: 0xB9C1, offset: 0xB9C1, size: 0x8, addend: 0x0, symName: __ZNSt3__19allocatorIP19FileSystemComponentE8allocateB7v160006Em, symObjAddr: 0x23AC, symBinAddr: 0x100002A14, symSize: 0x58 }
  - { offsetInCU: 0xB9F4, offset: 0xB9F4, size: 0x8, addend: 0x0, symName: __ZNSt3__117__compressed_pairIPP19FileSystemComponentRNS_9allocatorIS2_EEE6secondB7v160006Ev, symObjAddr: 0x2508, symBinAddr: 0x100002B70, symSize: 0x28 }
  - { offsetInCU: 0xBA19, offset: 0xBA19, size: 0x8, addend: 0x0, symName: __ZNSt3__122__compressed_pair_elemIRNS_9allocatorIP19FileSystemComponentEELi1ELb0EE5__getB7v160006Ev, symObjAddr: 0x2530, symBinAddr: 0x100002B98, symSize: 0x18 }
  - { offsetInCU: 0xBA3E, offset: 0xBA3E, size: 0x8, addend: 0x0, symName: __ZNSt3__117__compressed_pairIPP19FileSystemComponentRNS_9allocatorIS2_EEE5firstB7v160006Ev, symObjAddr: 0x2548, symBinAddr: 0x100002BB0, symSize: 0x24 }
  - { offsetInCU: 0xBA63, offset: 0xBA63, size: 0x8, addend: 0x0, symName: __ZNKSt3__16vectorIP19FileSystemComponentNS_9allocatorIS2_EEE17__annotate_deleteB7v160006Ev, symObjAddr: 0x256C, symBinAddr: 0x100002BD4, symSize: 0xB8 }
  - { offsetInCU: 0xBA88, offset: 0xBA88, size: 0x8, addend: 0x0, symName: __ZNSt3__116reverse_iteratorIPP19FileSystemComponentEC1B7v160006ES3_, symObjAddr: 0x269C, symBinAddr: 0x100002D04, symSize: 0x34 }
  - { offsetInCU: 0xBABF, offset: 0xBABF, size: 0x8, addend: 0x0, symName: __ZNKSt3__116reverse_iteratorIPP19FileSystemComponentE4baseB7v160006Ev, symObjAddr: 0x26D0, symBinAddr: 0x100002D38, symSize: 0x18 }
  - { offsetInCU: 0xBAE4, offset: 0xBAE4, size: 0x8, addend: 0x0, symName: __ZNKSt3__16vectorIP19FileSystemComponentNS_9allocatorIS2_EEE14__annotate_newB7v160006Em, symObjAddr: 0x2724, symBinAddr: 0x100002D8C, symSize: 0xAC }
  - { offsetInCU: 0xBB18, offset: 0xBB18, size: 0x8, addend: 0x0, symName: __ZNKSt3__16vectorIP19FileSystemComponentNS_9allocatorIS2_EEE31__annotate_contiguous_containerB7v160006EPKvS7_S7_S7_, symObjAddr: 0x27E0, symBinAddr: 0x100002E48, symSize: 0x20 }
  - { offsetInCU: 0xBB69, offset: 0xBB69, size: 0x8, addend: 0x0, symName: __ZNKSt3__16vectorIP19FileSystemComponentNS_9allocatorIS2_EEE4dataB7v160006Ev, symObjAddr: 0x2800, symBinAddr: 0x100002E68, symSize: 0x28 }
  - { offsetInCU: 0xBBB1, offset: 0xBBB1, size: 0x8, addend: 0x0, symName: __ZNKSt3__111__move_loopINS_17_ClassicAlgPolicyEEclB7v160006INS_16reverse_iteratorIPP19FileSystemComponentEES8_S8_EENS_4pairIT_T1_EESA_T0_SB_, symObjAddr: 0x2B18, symBinAddr: 0x100003180, symSize: 0xA0 }
  - { offsetInCU: 0xBC20, offset: 0xBC20, size: 0x8, addend: 0x0, symName: __ZNSt3__18_IterOpsINS_17_ClassicAlgPolicyEE11__iter_moveB7v160006IRNS_16reverse_iteratorIPP19FileSystemComponentEEEENS_9enable_ifIXsr12is_referenceIDTdeclsr3stdE7declvalIRT_EEEEE5valueEDTclsr3stdE4movedeclsr3stdE7declvalISC_EEEEE4typeEOSB_, symObjAddr: 0x2D4C, symBinAddr: 0x1000033B4, symSize: 0x28 }
  - { offsetInCU: 0xBC4C, offset: 0xBC4C, size: 0x8, addend: 0x0, symName: __ZNKSt3__116reverse_iteratorIPP19FileSystemComponentEdeB7v160006Ev, symObjAddr: 0x2D74, symBinAddr: 0x1000033DC, symSize: 0x28 }
  - { offsetInCU: 0xBC7F, offset: 0xBC7F, size: 0x8, addend: 0x0, symName: __ZNSt3__116reverse_iteratorIPP19FileSystemComponentEppB7v160006Ev, symObjAddr: 0x2D9C, symBinAddr: 0x100003404, symSize: 0x20 }
  - { offsetInCU: 0xBCA4, offset: 0xBCA4, size: 0x8, addend: 0x0, symName: __ZNSt3__18_IterOpsINS_17_ClassicAlgPolicyEE25__validate_iter_referenceB7v160006IRNS_16reverse_iteratorIPP19FileSystemComponentEEEEvv, symObjAddr: 0x2DBC, symBinAddr: 0x100003424, symSize: 0x4 }
  - { offsetInCU: 0xBCC2, offset: 0xBCC2, size: 0x8, addend: 0x0, symName: __ZNSt3__118__unwrap_iter_implINS_16reverse_iteratorIPP19FileSystemComponentEELb0EE8__unwrapB7v160006ES5_, symObjAddr: 0x2DC0, symBinAddr: 0x100003428, symSize: 0x24 }
  - { offsetInCU: 0xBCEA, offset: 0xBCEA, size: 0x8, addend: 0x0, symName: __ZNSt3__14pairINS_16reverse_iteratorIPP19FileSystemComponentEES5_EC1B7v160006IS5_S5_LPv0EEEOT_OT0_, symObjAddr: 0x2DE4, symBinAddr: 0x10000344C, symSize: 0x3C }
  - { offsetInCU: 0xBD47, offset: 0xBD47, size: 0x8, addend: 0x0, symName: __ZNSt3__14pairINS_16reverse_iteratorIPP19FileSystemComponentEES5_EC2B7v160006IS5_S5_LPv0EEEOT_OT0_, symObjAddr: 0x2E20, symBinAddr: 0x100003488, symSize: 0x34 }
  - { offsetInCU: 0xBDA4, offset: 0xBDA4, size: 0x8, addend: 0x0, symName: __ZNSt3__118__unwrap_iter_implINS_16reverse_iteratorIPP19FileSystemComponentEELb0EE8__rewrapB7v160006ES5_S5_, symObjAddr: 0x2E54, symBinAddr: 0x1000034BC, symSize: 0x2C }
  - { offsetInCU: 0xBDD2, offset: 0xBDD2, size: 0x8, addend: 0x0, symName: __ZNSt3__116reverse_iteratorIPP19FileSystemComponentEC2B7v160006ES3_, symObjAddr: 0x2E80, symBinAddr: 0x1000034E8, symSize: 0x28 }
  - { offsetInCU: 0xBE09, offset: 0xBE09, size: 0x8, addend: 0x0, symName: __ZNSt3__114__split_bufferIP19FileSystemComponentRNS_9allocatorIS2_EEED2Ev, symObjAddr: 0x2EA8, symBinAddr: 0x100003510, symSize: 0x8C }
  - { offsetInCU: 0xBE34, offset: 0xBE34, size: 0x8, addend: 0x0, symName: __ZNSt3__114__split_bufferIP19FileSystemComponentRNS_9allocatorIS2_EEE5clearB7v160006Ev, symObjAddr: 0x2F34, symBinAddr: 0x10000359C, symSize: 0x28 }
  - { offsetInCU: 0xBE59, offset: 0xBE59, size: 0x8, addend: 0x0, symName: __ZNSt3__116allocator_traitsINS_9allocatorIP19FileSystemComponentEEE10deallocateB7v160006ERS4_PS3_m, symObjAddr: 0x2F5C, symBinAddr: 0x1000035C4, symSize: 0x34 }
  - { offsetInCU: 0xBE9B, offset: 0xBE9B, size: 0x8, addend: 0x0, symName: __ZNKSt3__114__split_bufferIP19FileSystemComponentRNS_9allocatorIS2_EEE8capacityB7v160006Ev, symObjAddr: 0x2F90, symBinAddr: 0x1000035F8, symSize: 0x40 }
  - { offsetInCU: 0xBEC0, offset: 0xBEC0, size: 0x8, addend: 0x0, symName: __ZNSt3__114__split_bufferIP19FileSystemComponentRNS_9allocatorIS2_EEE17__destruct_at_endB7v160006EPS2_, symObjAddr: 0x2FD0, symBinAddr: 0x100003638, symSize: 0x2C }
  - { offsetInCU: 0xBEF3, offset: 0xBEF3, size: 0x8, addend: 0x0, symName: __ZNSt3__114__split_bufferIP19FileSystemComponentRNS_9allocatorIS2_EEE17__destruct_at_endB7v160006EPS2_NS_17integral_constantIbLb0EEE, symObjAddr: 0x2FFC, symBinAddr: 0x100003664, symSize: 0x80 }
  - { offsetInCU: 0xBF32, offset: 0xBF32, size: 0x8, addend: 0x0, symName: __ZNSt3__116allocator_traitsINS_9allocatorIP19FileSystemComponentEEE7destroyB7v160006IS3_vEEvRS4_PT_, symObjAddr: 0x307C, symBinAddr: 0x1000036E4, symSize: 0x2C }
  - { offsetInCU: 0xBF6F, offset: 0xBF6F, size: 0x8, addend: 0x0, symName: __ZNSt3__19allocatorIP19FileSystemComponentE7destroyB7v160006EPS2_, symObjAddr: 0x30A8, symBinAddr: 0x100003710, symSize: 0x14 }
  - { offsetInCU: 0xBFA2, offset: 0xBFA2, size: 0x8, addend: 0x0, symName: __ZNSt3__19allocatorIP19FileSystemComponentE10deallocateB7v160006EPS2_m, symObjAddr: 0x30BC, symBinAddr: 0x100003724, symSize: 0x40 }
  - { offsetInCU: 0xBFE3, offset: 0xBFE3, size: 0x8, addend: 0x0, symName: __ZNKSt3__114__split_bufferIP19FileSystemComponentRNS_9allocatorIS2_EEE9__end_capB7v160006Ev, symObjAddr: 0x3204, symBinAddr: 0x10000386C, symSize: 0x28 }
  - { offsetInCU: 0xC008, offset: 0xC008, size: 0x8, addend: 0x0, symName: __ZNKSt3__117__compressed_pairIPP19FileSystemComponentRNS_9allocatorIS2_EEE5firstB7v160006Ev, symObjAddr: 0x322C, symBinAddr: 0x100003894, symSize: 0x24 }
  - { offsetInCU: 0xC02D, offset: 0xC02D, size: 0x8, addend: 0x0, symName: __ZNSt3__111char_traitsIcE6lengthEPKc, symObjAddr: 0x3250, symBinAddr: 0x1000038B8, symSize: 0x34 }
  - { offsetInCU: 0xC050, offset: 0xC050, size: 0x8, addend: 0x0, symName: __ZNSt3__112basic_stringIcNS_11char_traitsIcEENS_9allocatorIcEEEC2B7v160006IDnEEPKc, symObjAddr: 0x32A8, symBinAddr: 0x100003910, symSize: 0x60 }
...
